; Function Attrs: mustprogress uwtable
define void @grpc_auth_context_property_iterator(ptr noalias nocapture writeonly sret(%struct.grpc_auth_property_iterator) align 8 %agg.result, ptr noundef %ctx) local_unnamed_addr #4 personality ptr @__gxx_personality_v0 {
entry:
  tail call void @llvm.memset.p0.i64(ptr noundef nonnull align 8 dereferenceable(24) %agg.result, i8 0, i64 24, i1 false)
  %0 = load atomic i8, ptr getelementptr inbounds (%"class.grpc_core::TraceFlag", ptr @grpc_api_trace, i64 0, i32 2, i32 0, i32 0) monotonic, align 8
  %1 = and i8 %0, 1
  %tobool.i.i.i.not = icmp eq i8 %1, 0
  br i1 %tobool.i.i.i.not, label %if.end, label %if.then

if.then:                                          ; preds = %entry
  tail call void (ptr, i32, i32, ptr, ...) @gpr_log(ptr noundef nonnull @.str, i32 noundef 175, i32 noundef 1, ptr noundef nonnull @.str.15, ptr noundef %ctx)
  br label %if.end

if.end:                                           ; preds = %if.then, %entry
  %cmp = icmp eq ptr %ctx, null
  br i1 %cmp, label %return, label %if.end2

if.end2:                                          ; preds = %if.end
  store ptr %ctx, ptr %agg.result, align 8
  br label %return

return:                                           ; preds = %if.end, %if.end2
  ret void
}